target datalayout = "e-m:e-p270:32:32-p271:32:32-p272:64:64-i64:64-i128:128-f80:128-n8:16:32:64-S128"
target triple = "x86_64-pc-linux-gnu"

%"class.absl::lts_20240722::log_internal::Voidify" = type { i8 }
%"class.absl::lts_20240722::log_internal::LogMessage" = type { %"class.absl::lts_20240722::base_internal::ErrnoSaver", %"class.std::unique_ptr" }
%"class.absl::lts_20240722::base_internal::ErrnoSaver" = type { i32 }
%"class.std::unique_ptr" = type { %"struct.std::__uniq_ptr_data" }
%"struct.std::__uniq_ptr_data" = type { %"class.std::__uniq_ptr_impl" }
%"class.std::__uniq_ptr_impl" = type { %"class.std::tuple" }
%"class.std::tuple" = type { %"struct.std::_Tuple_impl" }
%"struct.std::_Tuple_impl" = type { %"struct.std::_Head_base.1" }
%"struct.std::_Head_base.1" = type { ptr }
%"class.std::basic_string_view" = type { i64, ptr }

@.str.1 = private unnamed_addr constant [126 x i8] c"generated/home/dtcxzyw/WorkSpace/Projects/compilers/llvm-opt-benchmark/bench/grpc/grpc/src/core/tsi/ssl_transport_security.cc\00", align 1
@.str.83 = private unnamed_addr constant [31 x i8] c"Invalid protocol name length: \00", align 1

; Function Attrs: mustprogress nounwind uwtable
define linkonce_odr noundef i64 @_ZNSt11char_traitsIcE6lengthEPKc(ptr noundef %0) #7 comdat align 2 {
  %2 = alloca ptr, align 8
  store ptr %0, ptr %2, align 8, !tbaa !3
  %3 = load ptr, ptr %2, align 8, !tbaa !3
  %4 = call i64 @strlen(ptr noundef %3) #3
  ret i64 %4
}

; Function Attrs: mustprogress nounwind uwtable
define linkonce_odr void @_ZNSt17basic_string_viewIcSt11char_traitsIcEEC2EPKc(ptr noundef nonnull align 8 dereferenceable(16) %0, ptr noundef nonnull %1) unnamed_addr #7 comdat align 2 {
  %3 = alloca ptr, align 8
  %4 = alloca ptr, align 8
  store ptr %0, ptr %3, align 8, !tbaa !163
  store ptr %1, ptr %4, align 8, !tbaa !3
  %5 = load ptr, ptr %3, align 8
  %6 = getelementptr inbounds nuw %"class.std::basic_string_view", ptr %5, i32 0, i32 0
  %7 = load ptr, ptr %4, align 8, !tbaa !3
  %8 = call noundef i64 @_ZNSt11char_traitsIcE6lengthEPKc(ptr noundef %7)
  store i64 %8, ptr %6, align 8, !tbaa !165
  %9 = getelementptr inbounds nuw %"class.std::basic_string_view", ptr %5, i32 0, i32 1
  %10 = load ptr, ptr %4, align 8, !tbaa !3
  store ptr %10, ptr %9, align 8, !tbaa !167
  ret void
}

; Function Attrs: mustprogress nounwind uwtable
define linkonce_odr void @_ZNKO4absl12lts_2024072212log_internal7VoidifyaaINS1_10LogMessageEEEvRKT_(ptr noundef nonnull align 1 dereferenceable(1) %0, ptr noundef nonnull align 8 dereferenceable(16) %1) #7 comdat align 2 {
  %3 = alloca ptr, align 8
  %4 = alloca ptr, align 8
  store ptr %0, ptr %3, align 8, !tbaa !16
  store ptr %1, ptr %4, align 8, !tbaa !18
  ret void
}

; Function Attrs: mustprogress uwtable
define linkonce_odr noundef nonnull align 8 dereferenceable(16) ptr @_ZN4absl12lts_2024072212log_internal10LogMessagelsEm(ptr noundef nonnull align 8 dereferenceable(16) %0, i64 noundef %1) #4 comdat align 2 {
  %3 = alloca ptr, align 8
  %4 = alloca i64, align 8
  store ptr %0, ptr %3, align 8, !tbaa !18
  store i64 %1, ptr %4, align 8, !tbaa !26
  %5 = load ptr, ptr %3, align 8
  %6 = call noundef nonnull align 8 dereferenceable(16) ptr @_ZN4absl12lts_2024072212log_internal10LogMessagelsImTnNSt9enable_ifIXntsr4absl16HasAbslStringifyIT_EE5valueEiE4typeELi0EEERS2_RKS5_(ptr noundef nonnull align 8 dereferenceable(16) %5, ptr noundef nonnull align 8 dereferenceable(8) %4)
  ret ptr %6
}

; Function Attrs: mustprogress uwtable
define linkonce_odr noundef nonnull align 8 dereferenceable(16) ptr @_ZN4absl12lts_2024072212log_internal10LogMessagelsILi31EEERS2_RAT__Kc(ptr noundef nonnull align 8 dereferenceable(16) %0, ptr noundef nonnull align 1 dereferenceable(31) %1) #4 comdat align 2 {
  %3 = alloca ptr, align 8
  %4 = alloca ptr, align 8
  %5 = alloca %"class.std::basic_string_view", align 8
  store ptr %0, ptr %3, align 8, !tbaa !18
  store ptr %1, ptr %4, align 8, !tbaa !3
  %6 = load ptr, ptr %3, align 8
  %7 = load ptr, ptr %4, align 8, !tbaa !3
  %8 = getelementptr inbounds [31 x i8], ptr %7, i64 0, i64 0
  call void @_ZNSt17basic_string_viewIcSt11char_traitsIcEEC2EPKc(ptr noundef nonnull align 8 dereferenceable(16) %5, ptr noundef %8) #3
  %9 = getelementptr inbounds nuw { i64, ptr }, ptr %5, i32 0, i32 0
  %10 = load i64, ptr %9, align 8
  %11 = getelementptr inbounds nuw { i64, ptr }, ptr %5, i32 0, i32 1
  %12 = load ptr, ptr %11, align 8
  call void @_ZN4absl12lts_2024072212log_internal10LogMessage19CopyToEncodedBufferILNS2_10StringTypeE0EEEvSt17basic_string_viewIcSt11char_traitsIcEE(ptr noundef nonnull align 8 dereferenceable(16) %6, i64 %10, ptr %12)
  ret ptr %6
}

; Function Attrs: mustprogress nounwind uwtable
define linkonce_odr noundef nonnull align 8 dereferenceable(16) ptr @_ZN4absl12lts_2024072212log_internal10LogMessage14InternalStreamEv(ptr noundef nonnull align 8 dereferenceable(16) %0) #7 comdat align 2 {
  %2 = alloca ptr, align 8
  store ptr %0, ptr %2, align 8, !tbaa !18
  %3 = load ptr, ptr %2, align 8
  ret ptr %3
}

; Function Attrs: mustprogress uwtable
define internal noundef i32 @_ZL29build_alpn_protocol_name_listPPKctPPhPm(ptr noundef %0, i16 noundef zeroext %1, ptr noundef %2, ptr noundef %3) #4 personality ptr @__gxx_personality_v0 {
  %5 = alloca i32, align 4
  %6 = alloca ptr, align 8
  %7 = alloca i16, align 2
  %8 = alloca ptr, align 8
  %9 = alloca ptr, align 8
  %10 = alloca i16, align 2
  %11 = alloca ptr, align 8
  %12 = alloca i32, align 4
  %13 = alloca i64, align 8
  %14 = alloca %"class.absl::lts_20240722::log_internal::Voidify", align 1
  %15 = alloca %"class.absl::lts_20240722::log_internal::LogMessage", align 8
  %16 = alloca ptr, align 8
  %17 = alloca i32, align 4
  %18 = alloca i64, align 8
  store ptr %0, ptr %6, align 8, !tbaa !111
  store i16 %1, ptr %7, align 2, !tbaa !113
  store ptr %2, ptr %8, align 8, !tbaa !111
  store ptr %3, ptr %9, align 8, !tbaa !158
  call void @llvm.lifetime.start.p0(i64 2, ptr %10) #3
  call void @llvm.lifetime.start.p0(i64 8, ptr %11) #3
  %19 = load ptr, ptr %8, align 8, !tbaa !111
  store ptr null, ptr %19, align 8, !tbaa !3
  %20 = load ptr, ptr %9, align 8, !tbaa !158
  store i64 0, ptr %20, align 8, !tbaa !26
  %21 = load i16, ptr %7, align 2, !tbaa !113
  %22 = zext i16 %21 to i32
  %23 = icmp eq i32 %22, 0
  br i1 %23, label %24, label %25

24:                                               ; preds = %4
  store i32 2, ptr %5, align 4
  store i32 1, ptr %12, align 4
  br label %137

25:                                               ; preds = %4
  store i16 0, ptr %10, align 2, !tbaa !113
  br label %26

26:                                               ; preds = %75, %25
  %27 = load i16, ptr %10, align 2, !tbaa !113
  %28 = zext i16 %27 to i32
  %29 = load i16, ptr %7, align 2, !tbaa !113
  %30 = zext i16 %29 to i32
  %31 = icmp slt i32 %28, %30
  br i1 %31, label %32, label %78

32:                                               ; preds = %26
  call void @llvm.lifetime.start.p0(i64 8, ptr %13) #3
  %33 = load ptr, ptr %6, align 8, !tbaa !111
  %34 = load i16, ptr %10, align 2, !tbaa !113
  %35 = zext i16 %34 to i64
  %36 = getelementptr inbounds nuw ptr, ptr %33, i64 %35
  %37 = load ptr, ptr %36, align 8, !tbaa !3
  %38 = icmp eq ptr %37, null
  br i1 %38, label %39, label %40

39:                                               ; preds = %32
  br label %47

40:                                               ; preds = %32
  %41 = load ptr, ptr %6, align 8, !tbaa !111
  %42 = load i16, ptr %10, align 2, !tbaa !113
  %43 = zext i16 %42 to i64
  %44 = getelementptr inbounds nuw ptr, ptr %41, i64 %43
  %45 = load ptr, ptr %44, align 8, !tbaa !3
  %46 = call i64 @strlen(ptr noundef %45) #26
  br label %47

47:                                               ; preds = %40, %39
  %48 = phi i64 [ 0, %39 ], [ %46, %40 ]
  store i64 %48, ptr %13, align 8, !tbaa !26
  %49 = load i64, ptr %13, align 8, !tbaa !26
  %50 = icmp eq i64 %49, 0
  br i1 %50, label %54, label %51

51:                                               ; preds = %47
  %52 = load i64, ptr %13, align 8, !tbaa !26
  %53 = icmp ugt i64 %52, 255
  br i1 %53, label %54, label %66

54:                                               ; preds = %51, %47
  call void @llvm.lifetime.start.p0(i64 1, ptr %14) #3
  call void @llvm.lifetime.start.p0(i64 16, ptr %15) #3
  call void @_ZN4absl12lts_2024072212log_internal10LogMessageC1EPKciNS2_8ErrorTagE(ptr noundef nonnull align 8 dereferenceable(16) %15, ptr noundef @.str.1, i32 noundef 872) #27
  %55 = call noundef nonnull align 8 dereferenceable(16) ptr @_ZN4absl12lts_2024072212log_internal10LogMessage14InternalStreamEv(ptr noundef nonnull align 8 dereferenceable(16) %15)
  %56 = invoke noundef nonnull align 8 dereferenceable(16) ptr @_ZN4absl12lts_2024072212log_internal10LogMessagelsILi31EEERS2_RAT__Kc(ptr noundef nonnull align 8 dereferenceable(16) %55, ptr noundef nonnull align 1 dereferenceable(31) @.str.83)
          to label %57 unwind label %62

57:                                               ; preds = %54
  %58 = load i64, ptr %13, align 8, !tbaa !26
  %59 = invoke noundef nonnull align 8 dereferenceable(16) ptr @_ZN4absl12lts_2024072212log_internal10LogMessagelsEm(ptr noundef nonnull align 8 dereferenceable(16) %56, i64 noundef %58)
          to label %60 unwind label %62

60:                                               ; preds = %57
  invoke void @_ZNKO4absl12lts_2024072212log_internal7VoidifyaaINS1_10LogMessageEEEvRKT_(ptr noundef nonnull align 1 dereferenceable(1) %14, ptr noundef nonnull align 8 dereferenceable(16) %59)
          to label %61 unwind label %62

61:                                               ; preds = %60
  call void @_ZN4absl12lts_2024072212log_internal10LogMessageD1Ev(ptr noundef nonnull align 8 dereferenceable(16) %15) #28
  call void @llvm.lifetime.end.p0(i64 16, ptr %15) #3
  call void @llvm.lifetime.end.p0(i64 1, ptr %14) #3
  store i32 2, ptr %5, align 4
  store i32 1, ptr %12, align 4
  br label %72

62:                                               ; preds = %60, %57, %54
  %63 = landingpad { ptr, i32 }
          cleanup
  %64 = extractvalue { ptr, i32 } %63, 0
  store ptr %64, ptr %16, align 8
  %65 = extractvalue { ptr, i32 } %63, 1
  store i32 %65, ptr %17, align 4
  call void @_ZN4absl12lts_2024072212log_internal10LogMessageD1Ev(ptr noundef nonnull align 8 dereferenceable(16) %15) #28
  call void @llvm.lifetime.end.p0(i64 16, ptr %15) #3
  call void @llvm.lifetime.end.p0(i64 1, ptr %14) #3
  call void @llvm.lifetime.end.p0(i64 8, ptr %13) #3
  call void @llvm.lifetime.end.p0(i64 8, ptr %11) #3
  call void @llvm.lifetime.end.p0(i64 2, ptr %10) #3
  br label %139

66:                                               ; preds = %51
  %67 = load i64, ptr %13, align 8, !tbaa !26
  %68 = add i64 %67, 1
  %69 = load ptr, ptr %9, align 8, !tbaa !158
  %70 = load i64, ptr %69, align 8, !tbaa !26
  %71 = add i64 %70, %68
  store i64 %71, ptr %69, align 8, !tbaa !26
  store i32 0, ptr %12, align 4
  br label %72

72:                                               ; preds = %66, %61
  call void @llvm.lifetime.end.p0(i64 8, ptr %13) #3
  %73 = load i32, ptr %12, align 4
  switch i32 %73, label %137 [
    i32 0, label %74
  ]

74:                                               ; preds = %72
  br label %75

75:                                               ; preds = %74
  %76 = load i16, ptr %10, align 2, !tbaa !113
  %77 = add i16 %76, 1
  store i16 %77, ptr %10, align 2, !tbaa !113
  br label %26, !llvm.loop !160

78:                                               ; preds = %26
  %79 = load ptr, ptr %9, align 8, !tbaa !158
  %80 = load i64, ptr %79, align 8, !tbaa !26
  %81 = call ptr @gpr_malloc(i64 noundef %80)
  %82 = load ptr, ptr %8, align 8, !tbaa !111
  store ptr %81, ptr %82, align 8, !tbaa !3
  %83 = load ptr, ptr %8, align 8, !tbaa !111
  %84 = load ptr, ptr %83, align 8, !tbaa !3
  %85 = icmp eq ptr %84, null
  br i1 %85, label %86, label %87

86:                                               ; preds = %78
  store i32 12, ptr %5, align 4
  store i32 1, ptr %12, align 4
  br label %137

87:                                               ; preds = %78
  %88 = load ptr, ptr %8, align 8, !tbaa !111
  %89 = load ptr, ptr %88, align 8, !tbaa !3
  store ptr %89, ptr %11, align 8, !tbaa !3
  store i16 0, ptr %10, align 2, !tbaa !113
  br label %90

90:                                               ; preds = %117, %87
  %91 = load i16, ptr %10, align 2, !tbaa !113
  %92 = zext i16 %91 to i32
  %93 = load i16, ptr %7, align 2, !tbaa !113
  %94 = zext i16 %93 to i32
  %95 = icmp slt i32 %92, %94
  br i1 %95, label %96, label %120

96:                                               ; preds = %90
  call void @llvm.lifetime.start.p0(i64 8, ptr %18) #3
  %97 = load ptr, ptr %6, align 8, !tbaa !111
  %98 = load i16, ptr %10, align 2, !tbaa !113
  %99 = zext i16 %98 to i64
  %100 = getelementptr inbounds nuw ptr, ptr %97, i64 %99
  %101 = load ptr, ptr %100, align 8, !tbaa !3
  %102 = call i64 @strlen(ptr noundef %101) #26
  store i64 %102, ptr %18, align 8, !tbaa !26
  %103 = load i64, ptr %18, align 8, !tbaa !26
  %104 = trunc i64 %103 to i8
  %105 = load ptr, ptr %11, align 8, !tbaa !3
  %106 = getelementptr inbounds nuw i8, ptr %105, i32 1
  store ptr %106, ptr %11, align 8, !tbaa !3
  store i8 %104, ptr %105, align 1, !tbaa !161
  %107 = load ptr, ptr %11, align 8, !tbaa !3
  %108 = load ptr, ptr %6, align 8, !tbaa !111
  %109 = load i16, ptr %10, align 2, !tbaa !113
  %110 = zext i16 %109 to i64
  %111 = getelementptr inbounds nuw ptr, ptr %108, i64 %110
  %112 = load ptr, ptr %111, align 8, !tbaa !3
  %113 = load i64, ptr %18, align 8, !tbaa !26
  call void @llvm.memcpy.p0.p0.i64(ptr align 1 %107, ptr align 1 %112, i64 %113, i1 false)
  %114 = load i64, ptr %18, align 8, !tbaa !26
  %115 = load ptr, ptr %11, align 8, !tbaa !3
  %116 = getelementptr inbounds nuw i8, ptr %115, i64 %114
  store ptr %116, ptr %11, align 8, !tbaa !3
  call void @llvm.lifetime.end.p0(i64 8, ptr %18) #3
  br label %117

117:                                              ; preds = %96
  %118 = load i16, ptr %10, align 2, !tbaa !113
  %119 = add i16 %118, 1
  store i16 %119, ptr %10, align 2, !tbaa !113
  br label %90, !llvm.loop !162

120:                                              ; preds = %90
  %121 = load ptr, ptr %11, align 8, !tbaa !3
  %122 = load ptr, ptr %8, align 8, !tbaa !111
  %123 = load ptr, ptr %122, align 8, !tbaa !3
  %124 = icmp ult ptr %121, %123
  br i1 %124, label %135, label %125

125:                                              ; preds = %120
  %126 = load ptr, ptr %11, align 8, !tbaa !3
  %127 = load ptr, ptr %8, align 8, !tbaa !111
  %128 = load ptr, ptr %127, align 8, !tbaa !3
  %129 = ptrtoint ptr %126 to i64
  %130 = ptrtoint ptr %128 to i64
  %131 = sub i64 %129, %130
  %132 = load ptr, ptr %9, align 8, !tbaa !158
  %133 = load i64, ptr %132, align 8, !tbaa !26
  %134 = icmp ne i64 %131, %133
  br i1 %134, label %135, label %136

135:                                              ; preds = %125, %120
  store i32 7, ptr %5, align 4
  store i32 1, ptr %12, align 4
  br label %137

136:                                              ; preds = %125
  store i32 0, ptr %5, align 4
  store i32 1, ptr %12, align 4
  br label %137

137:                                              ; preds = %136, %135, %86, %72, %24
  call void @llvm.lifetime.end.p0(i64 8, ptr %11) #3
  call void @llvm.lifetime.end.p0(i64 2, ptr %10) #3
  %138 = load i32, ptr %5, align 4
  ret i32 %138

139:                                              ; preds = %62
  %140 = load ptr, ptr %16, align 8
  %141 = load i32, ptr %17, align 4
  %142 = insertvalue { ptr, i32 } poison, ptr %140, 0
  %143 = insertvalue { ptr, i32 } %142, i32 %141, 1
  resume { ptr, i32 } %143
}