; Function Attrs: mustprogress uwtable
define internal fastcc noundef range(i32 0, 13) i32 @_ZL29build_alpn_protocol_name_listPPKctPPhPm(ptr noundef readonly captures(none) %0, i16 noundef zeroext %1, ptr noundef captures(none) initializes((0, 8)) %2, ptr noundef captures(none) initializes((0, 8)) %3) unnamed_addr #3 personality ptr @__gxx_personality_v0 {
  %5 = alloca i64, align 8
  %6 = alloca %"class.absl::lts_20240722::log_internal::LogMessage", align 8
  store ptr null, ptr %2, align 8, !tbaa !23
  store i64 0, ptr %3, align 8, !tbaa !131
  %7 = icmp eq i16 %1, 0
  br i1 %7, label %41, label %.preheader55.preheader

.preheader55.preheader:                           ; preds = %4
  %wide.trip.count = zext i16 %1 to i64
  br label %.preheader55

.preheader55:                                     ; preds = %.preheader55.preheader, %20
  %8 = phi i64 [ 0, %.preheader55.preheader ], [ %22, %20 ]
  %indvars.iv = phi i64 [ 0, %.preheader55.preheader ], [ %indvars.iv.next, %20 ]
  %9 = getelementptr inbounds nuw ptr, ptr %0, i64 %indvars.iv
  %10 = load ptr, ptr %9, align 8, !tbaa !23
  %11 = icmp eq ptr %10, null
  br i1 %11, label %.thread, label %12

12:                                               ; preds = %.preheader55
  %13 = tail call i64 @strlen(ptr noundef nonnull dereferenceable(1) %10) #31
  %14 = add i64 %13, -1
  %or.cond = icmp ult i64 %14, 255
  br i1 %or.cond, label %20, label %.thread

.thread:                                          ; preds = %.preheader55, %12
  %15 = phi i64 [ %13, %12 ], [ 0, %.preheader55 ]
  call void @llvm.lifetime.start.p0(i64 16, ptr nonnull %6) #32
  call void @_ZN4absl12lts_2024072212log_internal10LogMessageC1EPKciNS2_8ErrorTagE(ptr noundef nonnull align 8 dereferenceable(16) %6, ptr noundef nonnull @.str.1, i32 noundef 872) #33
  invoke void @_ZN4absl12lts_2024072212log_internal10LogMessage19CopyToEncodedBufferILNS2_10StringTypeE0EEEvSt17basic_string_viewIcSt11char_traitsIcEE(ptr noundef nonnull align 8 dereferenceable(16) %6, i64 30, ptr nonnull @.str.83)
          to label %_ZN4absl12lts_2024072212log_internal10LogMessagelsILi31EEERS2_RAT__Kc.exit unwind label %17

_ZN4absl12lts_2024072212log_internal10LogMessagelsILi31EEERS2_RAT__Kc.exit: ; preds = %.thread
  call void @llvm.lifetime.start.p0(i64 8, ptr nonnull %5)
  store i64 %15, ptr %5, align 8, !tbaa !131
  %16 = invoke noundef nonnull align 8 dereferenceable(16) ptr @_ZN4absl12lts_2024072212log_internal10LogMessagelsImTnNSt9enable_ifIXntsr4absl16HasAbslStringifyIT_EE5valueEiE4typeELi0EEERS2_RKS5_(ptr noundef nonnull align 8 dereferenceable(16) %6, ptr noundef nonnull align 8 dereferenceable(8) %5)
          to label %19 unwind label %17

17:                                               ; preds = %_ZN4absl12lts_2024072212log_internal10LogMessagelsILi31EEERS2_RAT__Kc.exit, %.thread
  %18 = landingpad { ptr, i32 }
          cleanup
  call void @_ZN4absl12lts_2024072212log_internal10LogMessageD1Ev(ptr noundef nonnull align 8 dereferenceable(16) %6) #34
  call void @llvm.lifetime.end.p0(i64 16, ptr nonnull %6) #32
  resume { ptr, i32 } %18

19:                                               ; preds = %_ZN4absl12lts_2024072212log_internal10LogMessagelsILi31EEERS2_RAT__Kc.exit
  call void @llvm.lifetime.end.p0(i64 8, ptr nonnull %5)
  call void @_ZN4absl12lts_2024072212log_internal10LogMessageD1Ev(ptr noundef nonnull align 8 dereferenceable(16) %6) #34
  call void @llvm.lifetime.end.p0(i64 16, ptr nonnull %6) #32
  br label %41

20:                                               ; preds = %12
  %21 = add nuw nsw i64 %13, 1
  %22 = add i64 %21, %8
  store i64 %22, ptr %3, align 8, !tbaa !131
  %indvars.iv.next = add nuw nsw i64 %indvars.iv, 1
  %exitcond.not = icmp eq i64 %indvars.iv.next, %wide.trip.count
  br i1 %exitcond.not, label %23, label %.preheader55, !llvm.loop !135

23:                                               ; preds = %20
  %24 = tail call ptr @gpr_malloc(i64 noundef %22)
  store ptr %24, ptr %2, align 8, !tbaa !23
  %25 = icmp eq ptr %24, null
  br i1 %25, label %41, label %.preheader

.preheader:                                       ; preds = %23, %.preheader
  %indvars.iv60 = phi i64 [ %indvars.iv.next61, %.preheader ], [ 0, %23 ]
  %.04357 = phi ptr [ %32, %.preheader ], [ %24, %23 ]
  %26 = getelementptr inbounds nuw ptr, ptr %0, i64 %indvars.iv60
  %27 = load ptr, ptr %26, align 8, !tbaa !23
  %28 = tail call i64 @strlen(ptr noundef nonnull dereferenceable(1) %27) #31
  %29 = trunc i64 %28 to i8
  %30 = getelementptr inbounds nuw i8, ptr %.04357, i64 1
  store i8 %29, ptr %.04357, align 1, !tbaa !57
  %31 = load ptr, ptr %26, align 8, !tbaa !23
  tail call void @llvm.memcpy.p0.p0.i64(ptr nonnull align 1 %30, ptr align 1 %31, i64 %28, i1 false)
  %32 = getelementptr inbounds nuw i8, ptr %30, i64 %28
  %indvars.iv.next61 = add nuw nsw i64 %indvars.iv60, 1
  %exitcond64.not = icmp eq i64 %indvars.iv.next61, %wide.trip.count
  br i1 %exitcond64.not, label %33, label %.preheader, !llvm.loop !136

33:                                               ; preds = %.preheader
  %34 = load ptr, ptr %2, align 8, !tbaa !23
  %35 = icmp ult ptr %32, %34
  br i1 %35, label %41, label %36

36:                                               ; preds = %33
  %37 = ptrtoint ptr %32 to i64
  %38 = ptrtoint ptr %34 to i64
  %39 = sub i64 %37, %38
  %40 = load i64, ptr %3, align 8, !tbaa !131
  %.not = icmp eq i64 %39, %40
  %spec.select = select i1 %.not, i32 0, i32 7
  br label %41

41:                                               ; preds = %19, %36, %33, %23, %4
  %.0 = phi i32 [ 2, %19 ], [ 2, %4 ], [ 12, %23 ], [ 7, %33 ], [ %spec.select, %36 ]
  ret i32 %.0
}